(lp0
S'poi'
p1
aS'asset'
p2
aS'ratio_to_poi'
p3
aS'ratio_from_poi'
p4
aS'shared_receipt_with_poi'
p5
aS'expenses'
p6
aS'long_term_incentive'
p7
aS'loan_advances'
p8
aS'restricted_stock'
p9
aS'restricted_stock_deferred'
p10
aS'deferred_income'
p11
aS'salary'
p12
aS'deferral_payments'
p13
aS'total_stock_value'
p14
aS'exercised_stock_options'
p15
aS'total_payments'
p16
aS'bonus'
p17
aS'other'
p18
a.